target datalayout = "e-m:e-p270:32:32-p271:32:32-p272:64:64-i64:64-i128:128-f80:128-n8:16:32:64-S128"
target triple = "x86_64-unknown-linux-gnu"

; Function Attrs: mustprogress nounwind uwtable
define noundef zeroext i1 @_ZN8facebook5velox9functions17JsonPathTokenizer26isUnquotedBracketKeyFormatEc(ptr noundef nonnull align 8 dereferenceable(24) %this, i8 noundef signext %c) #1 align 2 {
entry:
  %this.addr = alloca ptr, align 8
  %c.addr = alloca i8, align 1
  store ptr %this, ptr %this.addr, align 8
  store i8 %c, ptr %c.addr, align 1
  %0 = load i8, ptr %c.addr, align 1
  %conv = sext i8 %0 to i32
  %cmp = icmp eq i32 %conv, 95
  br i1 %cmp, label %lor.end, label %lor.lhs.false

lor.lhs.false:                                    ; preds = %entry
  %1 = load i8, ptr %c.addr, align 1
  %conv2 = sext i8 %1 to i32
  %cmp3 = icmp eq i32 %conv2, 42
  br i1 %cmp3, label %lor.end, label %lor.rhs

lor.rhs:                                          ; preds = %lor.lhs.false
  %2 = load i8, ptr %c.addr, align 1
  %conv4 = sext i8 %2 to i32
  %call = call i32 @isalnum(i32 noundef %conv4) #12
  %tobool = icmp ne i32 %call, 0
  br label %lor.end

lor.end:                                          ; preds = %lor.rhs, %lor.lhs.false, %entry
  %3 = phi i1 [ true, %lor.lhs.false ], [ true, %entry ], [ %tobool, %lor.rhs ]
  ret i1 %3
}